; Function Attrs: nofree norecurse nosync nounwind memory(argmem: write) uwtable
define internal void @pred8x8_128_dc_10_c(ptr noundef writeonly captures(none) %0, i64 noundef %1) #4 {
  %3 = ashr i64 %1, 1
  br label %4

4:                                                ; preds = %2, %4
  %indvars.iv = phi i64 [ 0, %2 ], [ %indvars.iv.next, %4 ]
  %5 = mul nsw i64 %3, %indvars.iv
  %6 = getelementptr inbounds i16, ptr %0, i64 %5
  store i64 144117387132666368, ptr %6, align 8, !tbaa !8
  %7 = getelementptr inbounds nuw i8, ptr %6, i64 8
  store i64 144117387132666368, ptr %7, align 8, !tbaa !8
  %indvars.iv.next = add nuw nsw i64 %indvars.iv, 1
  %exitcond.not = icmp eq i64 %indvars.iv.next, 8
  br i1 %exitcond.not, label %8, label %4, !llvm.loop !102

8:                                                ; preds = %4
  ret void
}